target datalayout = "e-m:e-p270:32:32-p271:32:32-p272:64:64-i64:64-i128:128-f80:128-n8:16:32:64-S128"
target triple = "x86_64-unknown-linux-gnu"

%"class.re2::Regexp" = type { i8, i8, i16, i16, i16, %union.anon, ptr, %union.anon.0 }
%union.anon = type { ptr }
%union.anon.0 = type { %struct.anon.1 }
%struct.anon.1 = type { i32, ptr }

@_ZN3re26RegexpC1ENS_8RegexpOpENS0_10ParseFlagsE = unnamed_addr alias void (ptr, i32, i32), ptr @_ZN3re26RegexpC2ENS_8RegexpOpENS0_10ParseFlagsE

; Function Attrs: mustprogress uwtable
define noundef ptr @_ZN3re26Regexp10NewLiteralEiNS0_10ParseFlagsE(i32 noundef %rune, i32 noundef %flags) #3 align 2 personality ptr @__gxx_personality_v0 {
entry:
  %rune.addr = alloca i32, align 4
  %flags.addr = alloca i32, align 4
  %re = alloca ptr, align 8
  %exn.slot = alloca ptr, align 8
  %ehselector.slot = alloca i32, align 4
  store i32 %rune, ptr %rune.addr, align 4
  store i32 %flags, ptr %flags.addr, align 4
  %call = call noalias noundef nonnull ptr @_Znwm(i64 noundef 40) #19
  %0 = load i32, ptr %flags.addr, align 4
  invoke void @_ZN3re26RegexpC1ENS_8RegexpOpENS0_10ParseFlagsE(ptr noundef nonnull align 8 dereferenceable(40) %call, i32 noundef 3, i32 noundef %0)
          to label %invoke.cont unwind label %lpad

invoke.cont:                                      ; preds = %entry
  store ptr %call, ptr %re, align 8
  %1 = load i32, ptr %rune.addr, align 4
  %2 = load ptr, ptr %re, align 8
  %3 = getelementptr inbounds %"class.re2::Regexp", ptr %2, i32 0, i32 7
  store i32 %1, ptr %3, align 8
  %4 = load ptr, ptr %re, align 8
  ret ptr %4

lpad:                                             ; preds = %entry
  %5 = landingpad { ptr, i32 }
          cleanup
  %6 = extractvalue { ptr, i32 } %5, 0
  store ptr %6, ptr %exn.slot, align 8
  %7 = extractvalue { ptr, i32 } %5, 1
  store i32 %7, ptr %ehselector.slot, align 4
  call void @_ZdlPv(ptr noundef %call) #17
  br label %eh.resume

eh.resume:                                        ; preds = %lpad
  %exn = load ptr, ptr %exn.slot, align 8
  %sel = load i32, ptr %ehselector.slot, align 4
  %lpad.val = insertvalue { ptr, i32 } poison, ptr %exn, 0
  %lpad.val1 = insertvalue { ptr, i32 } %lpad.val, i32 %sel, 1
  resume { ptr, i32 } %lpad.val1
}